; Function Attrs: mustprogress uwtable
define void @_ZN6icu_7714StringReplacerC2ERKNS_13UnicodeStringEiPKNS_23TransliterationRuleDataE(ptr noundef nonnull align 8 dereferenceable(96) initializes((0, 26)) %0, ptr noundef nonnull align 8 dereferenceable(64) %1, i32 noundef %2, ptr noundef %3) unnamed_addr #1 align 2 personality ptr @__gxx_personality_v0 {
  %5 = getelementptr inbounds nuw i8, ptr %0, i64 8
  store ptr getelementptr inbounds nuw inrange(-16, 80) (i8, ptr @_ZTVN6icu_7714StringReplacerE, i64 16), ptr %0, align 8, !tbaa !15
  store ptr getelementptr inbounds nuw inrange(-16, 40) (i8, ptr @_ZTVN6icu_7714StringReplacerE, i64 112), ptr %5, align 8, !tbaa !15
  %6 = getelementptr inbounds nuw i8, ptr %0, i64 16
  store ptr getelementptr inbounds nuw inrange(-16, 88) (i8, ptr @_ZTVN6icu_7713UnicodeStringE, i64 16), ptr %6, align 8, !tbaa !15
  %7 = getelementptr inbounds nuw i8, ptr %0, i64 24
  store i16 2, ptr %7, align 8, !tbaa !17
  %8 = invoke noundef nonnull align 8 dereferenceable(64) ptr @_ZN6icu_7713UnicodeStringaSERKS0_(ptr noundef nonnull align 8 dereferenceable(64) %6, ptr noundef nonnull align 8 dereferenceable(64) %1)
          to label %9 unwind label %14

9:                                                ; preds = %4
  %10 = getelementptr inbounds nuw i8, ptr %0, i64 80
  store i32 %2, ptr %10, align 8, !tbaa !18
  %11 = getelementptr inbounds nuw i8, ptr %0, i64 84
  store i8 1, ptr %11, align 4, !tbaa !26
  %12 = getelementptr inbounds nuw i8, ptr %0, i64 88
  store ptr %3, ptr %12, align 8, !tbaa !27
  %13 = getelementptr inbounds nuw i8, ptr %0, i64 85
  store i8 1, ptr %13, align 1, !tbaa !28
  ret void

14:                                               ; preds = %4
  %15 = landingpad { ptr, i32 }
          cleanup
  tail call void @_ZN6icu_7713UnicodeStringD1Ev(ptr noundef nonnull align 8 dereferenceable(64) %6) #17
  tail call void @_ZN6icu_7714UnicodeFunctorD2Ev(ptr noundef nonnull align 8 dereferenceable(8) %0) #17
  resume { ptr, i32 } %15
}